/Library/Java/JavaVirtualMachines/jdk1.7.0_79.jdk/Contents/Home/bin/java -Djavax.net.debug=ssl:handshake -Didea.launcher.port=7534 "-Didea.launcher.bin.path=/Applications/IntelliJ IDEA 15.app/Contents/bin" -Dfile.encoding=UTF-8 -classpath "/Library/Java/JavaVirtualMachines/jdk1.7.0_79.jdk/Contents/Home/jre/lib/charsets.jar:/Library/Java/JavaVirtualMachines/jdk1.7.0_79.jdk/Contents/Home/jre/lib/deploy.jar:/Library/Java/JavaVirtualMachines/jdk1.7.0_79.jdk/Contents/Home/jre/lib/ext/dnsns.jar:/Library/Java/JavaVirtualMachines/jdk1.7.0_79.jdk/Contents/Home/jre/lib/ext/localedata.jar:/Library/Java/JavaVirtualMachines/jdk1.7.0_79.jdk/Contents/Home/jre/lib/ext/sunec.jar:/Library/Java/JavaVirtualMachines/jdk1.7.0_79.jdk/Contents/Home/jre/lib/ext/sunjce_provider.jar:/Library/Java/JavaVirtualMachines/jdk1.7.0_79.jdk/Contents/Home/jre/lib/ext/sunpkcs11.jar:/Library/Java/JavaVirtualMachines/jdk1.7.0_79.jdk/Contents/Home/jre/lib/ext/zipfs.jar:/Library/Java/JavaVirtualMachines/jdk1.7.0_79.jdk/Contents/Home/jre/lib/htmlconverter.jar:/Library/Java/JavaVirtualMachines/jdk1.7.0_79.jdk/Contents/Home/jre/lib/javaws.jar:/Library/Java/JavaVirtualMachines/jdk1.7.0_79.jdk/Contents/Home/jre/lib/jce.jar:/Library/Java/JavaVirtualMachines/jdk1.7.0_79.jdk/Contents/Home/jre/lib/jfr.jar:/Library/Java/JavaVirtualMachines/jdk1.7.0_79.jdk/Contents/Home/jre/lib/jfxrt.jar:/Library/Java/JavaVirtualMachines/jdk1.7.0_79.jdk/Contents/Home/jre/lib/jsse.jar:/Library/Java/JavaVirtualMachines/jdk1.7.0_79.jdk/Contents/Home/jre/lib/management-agent.jar:/Library/Java/JavaVirtualMachines/jdk1.7.0_79.jdk/Contents/Home/jre/lib/plugin.jar:/Library/Java/JavaVirtualMachines/jdk1.7.0_79.jdk/Contents/Home/jre/lib/resources.jar:/Library/Java/JavaVirtualMachines/jdk1.7.0_79.jdk/Contents/Home/jre/lib/rt.jar:/Library/Java/JavaVirtualMachines/jdk1.7.0_79.jdk/Contents/Home/lib/ant-javafx.jar:/Library/Java/JavaVirtualMachines/jdk1.7.0_79.jdk/Contents/Home/lib/dt.jar:/Library/Java/JavaVirtualMachines/jdk1.7.0_79.jdk/Contents/Home/lib/javafx-doclet.jar:/Library/Java/JavaVirtualMachines/jdk1.7.0_79.jdk/Contents/Home/lib/javafx-mx.jar:/Library/Java/JavaVirtualMachines/jdk1.7.0_79.jdk/Contents/Home/lib/jconsole.jar:/Library/Java/JavaVirtualMachines/jdk1.7.0_79.jdk/Contents/Home/lib/sa-jdi.jar:/Library/Java/JavaVirtualMachines/jdk1.7.0_79.jdk/Contents/Home/lib/tools.jar:/Users/nguyenda/Desktop/debug-ssl/target/classes:/Applications/IntelliJ IDEA 15.app/Contents/lib/idea_rt.jar" com.intellij.rt.execution.application.AppMain Main
keyStore is :
keyStore type is : jks
keyStore provider is :
init keystore
init keymanager of type SunX509
trustStore is: /Library/Java/JavaVirtualMachines/jdk1.7.0_79.jdk/Contents/Home/jre/lib/security/cacerts
trustStore type is : jks
trustStore provider is :
init truststore
adding as trusted cert:
  Subject: CN=SwissSign Platinum CA - G2, O=SwissSign AG, C=CH
  Issuer:  CN=SwissSign Platinum CA - G2, O=SwissSign AG, C=CH
  Algorithm: RSA; Serial number: 0x4eb200670c035d4f
  Valid from Wed Oct 25 01:36:00 PDT 2006 until Sat Oct 25 01:36:00 PDT 2036

adding as trusted cert:
  Subject: EMAILADDRESS=info@valicert.com, CN=http://www.valicert.com/, OU=ValiCert Class 1 Policy Validation Authority, O="ValiCert, Inc.", L=ValiCert Validation Network
  Issuer:  EMAILADDRESS=info@valicert.com, CN=http://www.valicert.com/, OU=ValiCert Class 1 Policy Validation Authority, O="ValiCert, Inc.", L=ValiCert Validation Network
  Algorithm: RSA; Serial number: 0x1
  Valid from Fri Jun 25 15:23:48 PDT 1999 until Tue Jun 25 15:23:48 PDT 2019

adding as trusted cert:
  Subject: CN=thawte Primary Root CA, OU="(c) 2006 thawte, Inc. - For authorized use only", OU=Certification Services Division, O="thawte, Inc.", C=US
  Issuer:  CN=thawte Primary Root CA, OU="(c) 2006 thawte, Inc. - For authorized use only", OU=Certification Services Division, O="thawte, Inc.", C=US
  Algorithm: RSA; Serial number: 0x344ed55720d5edec49f42fce37db2b6d
  Valid from Thu Nov 16 16:00:00 PST 2006 until Wed Jul 16 16:59:59 PDT 2036

adding as trusted cert:
  Subject: CN=Entrust Root Certification Authority, OU="(c) 2006 Entrust, Inc.", OU=www.entrust.net/CPS is incorporated by reference, O="Entrust, Inc.", C=US
  Issuer:  CN=Entrust Root Certification Authority, OU="(c) 2006 Entrust, Inc.", OU=www.entrust.net/CPS is incorporated by reference, O="Entrust, Inc.", C=US
  Algorithm: RSA; Serial number: 0x456b5054
  Valid from Mon Nov 27 12:23:42 PST 2006 until Fri Nov 27 12:53:42 PST 2026

adding as trusted cert:
  Subject: CN=KEYNECTIS ROOT CA, OU=ROOT, O=KEYNECTIS, C=FR
  Issuer:  CN=KEYNECTIS ROOT CA, OU=ROOT, O=KEYNECTIS, C=FR
  Algorithm: RSA; Serial number: 0x1121bc276c5547af584eefd4ced629b2a285
  Valid from Mon May 25 17:00:00 PDT 2009 until Mon May 25 17:00:00 PDT 2020

adding as trusted cert:
  Subject: CN=Global Chambersign Root - 2008, O=AC Camerfirma S.A., SERIALNUMBER=A82743287, L=Madrid (see current address at www.camerfirma.com/address), C=EU
  Issuer:  CN=Global Chambersign Root - 2008, O=AC Camerfirma S.A., SERIALNUMBER=A82743287, L=Madrid (see current address at www.camerfirma.com/address), C=EU
  Algorithm: RSA; Serial number: 0xc9cdd3e9d57d23ce
  Valid from Fri Aug 01 05:31:40 PDT 2008 until Sat Jul 31 05:31:40 PDT 2038

adding as trusted cert:
  Subject: CN=America Online Root Certification Authority 2, O=America Online Inc., C=US
  Issuer:  CN=America Online Root Certification Authority 2, O=America Online Inc., C=US
  Algorithm: RSA; Serial number: 0x1
  Valid from Mon May 27 23:00:00 PDT 2002 until Tue Sep 29 07:08:00 PDT 2037

adding as trusted cert:
  Subject: CN=AddTrust Qualified CA Root, OU=AddTrust TTP Network, O=AddTrust AB, C=SE
  Issuer:  CN=AddTrust Qualified CA Root, OU=AddTrust TTP Network, O=AddTrust AB, C=SE
  Algorithm: RSA; Serial number: 0x1
  Valid from Tue May 30 03:44:50 PDT 2000 until Sat May 30 03:44:50 PDT 2020

adding as trusted cert:
  Subject: CN=QuoVadis Root Certification Authority, OU=Root Certification Authority, O=QuoVadis Limited, C=BM
  Issuer:  CN=QuoVadis Root Certification Authority, OU=Root Certification Authority, O=QuoVadis Limited, C=BM
  Algorithm: RSA; Serial number: 0x3ab6508b
  Valid from Mon Mar 19 10:33:33 PST 2001 until Wed Mar 17 11:33:33 PDT 2021

adding as trusted cert:
  Subject: CN=SwissSign Silver CA - G2, O=SwissSign AG, C=CH
  Issuer:  CN=SwissSign Silver CA - G2, O=SwissSign AG, C=CH
  Algorithm: RSA; Serial number: 0x4f1bd42f54bb2f4b
  Valid from Wed Oct 25 01:32:46 PDT 2006 until Sat Oct 25 01:32:46 PDT 2036

adding as trusted cert:
  Subject: OU=Security Communication EV RootCA1, O="SECOM Trust Systems CO.,LTD.", C=JP
  Issuer:  OU=Security Communication EV RootCA1, O="SECOM Trust Systems CO.,LTD.", C=JP
  Algorithm: RSA; Serial number: 0x0
  Valid from Tue Jun 05 19:12:32 PDT 2007 until Fri Jun 05 19:12:32 PDT 2037

adding as trusted cert:
  Subject: CN=AffirmTrust Premium ECC, O=AffirmTrust, C=US
  Issuer:  CN=AffirmTrust Premium ECC, O=AffirmTrust, C=US
  Algorithm: EC; Serial number: 0x7497258ac73f7a54
  Valid from Fri Jan 29 06:20:24 PST 2010 until Mon Dec 31 06:20:24 PST 2040

adding as trusted cert:
  Subject: CN=XRamp Global Certification Authority, O=XRamp Security Services Inc, OU=www.xrampsecurity.com, C=US
  Issuer:  CN=XRamp Global Certification Authority, O=XRamp Security Services Inc, OU=www.xrampsecurity.com, C=US
  Algorithm: RSA; Serial number: 0x50946cec18ead59c4dd597ef758fa0ad
  Valid from Mon Nov 01 09:14:04 PST 2004 until Sun Dec 31 21:37:19 PST 2034

adding as trusted cert:
  Subject: CN=SwissSign Gold CA - G2, O=SwissSign AG, C=CH
  Issuer:  CN=SwissSign Gold CA - G2, O=SwissSign AG, C=CH
  Algorithm: RSA; Serial number: 0xbb401c43f55e4fb0
  Valid from Wed Oct 25 01:30:35 PDT 2006 until Sat Oct 25 01:30:35 PDT 2036

adding as trusted cert:
  Subject: CN=Swisscom Root EV CA 2, OU=Digital Certificate Services, O=Swisscom, C=ch
  Issuer:  CN=Swisscom Root EV CA 2, OU=Digital Certificate Services, O=Swisscom, C=ch
  Algorithm: RSA; Serial number: 0xf2fa64e27463d38dfd101d041f76ca58
  Valid from Fri Jun 24 02:45:08 PDT 2011 until Wed Jun 25 01:45:08 PDT 2031

adding as trusted cert:
  Subject: CN=AffirmTrust Commercial, O=AffirmTrust, C=US
  Issuer:  CN=AffirmTrust Commercial, O=AffirmTrust, C=US
  Algorithm: RSA; Serial number: 0x7777062726a9b17c
  Valid from Fri Jan 29 06:06:06 PST 2010 until Tue Dec 31 06:06:06 PST 2030

adding as trusted cert:
  Subject: EMAILADDRESS=personal-freemail@thawte.com, CN=Thawte Personal Freemail CA, OU=Certification Services Division, O=Thawte Consulting, L=Cape Town, ST=Western Cape, C=ZA
  Issuer:  EMAILADDRESS=personal-freemail@thawte.com, CN=Thawte Personal Freemail CA, OU=Certification Services Division, O=Thawte Consulting, L=Cape Town, ST=Western Cape, C=ZA
  Algorithm: RSA; Serial number: 0x123df0e7da2a2247a43889e08aeec967
  Valid from Sun Dec 31 16:00:00 PST 1995 until Fri Jan 01 15:59:59 PST 2021

adding as trusted cert:
  Subject: CN=thawte Primary Root CA - G3, OU="(c) 2008 thawte, Inc. - For authorized use only", OU=Certification Services Division, O="thawte, Inc.", C=US
  Issuer:  CN=thawte Primary Root CA - G3, OU="(c) 2008 thawte, Inc. - For authorized use only", OU=Certification Services Division, O="thawte, Inc.", C=US
  Algorithm: RSA; Serial number: 0x600197b746a7eab4b49ad64b2ff790fb
  Valid from Tue Apr 01 17:00:00 PDT 2008 until Tue Dec 01 15:59:59 PST 2037

adding as trusted cert:
  Subject: CN=GTE CyberTrust Global Root, OU="GTE CyberTrust Solutions, Inc.", O=GTE Corporation, C=US
  Issuer:  CN=GTE CyberTrust Global Root, OU="GTE CyberTrust Solutions, Inc.", O=GTE Corporation, C=US
  Algorithm: RSA; Serial number: 0x1a5
  Valid from Wed Aug 12 17:29:00 PDT 1998 until Mon Aug 13 16:59:00 PDT 2018

adding as trusted cert:
  Subject: CN=Starfield Services Root Certificate Authority - G2, O="Starfield Technologies, Inc.", L=Scottsdale, ST=Arizona, C=US
  Issuer:  CN=Starfield Services Root Certificate Authority - G2, O="Starfield Technologies, Inc.", L=Scottsdale, ST=Arizona, C=US
  Algorithm: RSA; Serial number: 0x0
  Valid from Mon Aug 31 17:00:00 PDT 2009 until Thu Dec 31 15:59:59 PST 2037

adding as trusted cert:
  Subject: CN=Baltimore CyberTrust Root, OU=CyberTrust, O=Baltimore, C=IE
  Issuer:  CN=Baltimore CyberTrust Root, OU=CyberTrust, O=Baltimore, C=IE
  Algorithm: RSA; Serial number: 0x20000b9
  Valid from Fri May 12 11:46:00 PDT 2000 until Mon May 12 16:59:00 PDT 2025

adding as trusted cert:
  Subject: CN=LuxTrust Global Root, O=LuxTrust s.a., C=LU
  Issuer:  CN=LuxTrust Global Root, O=LuxTrust s.a., C=LU
  Algorithm: RSA; Serial number: 0xbb8
  Valid from Thu Mar 17 02:51:37 PDT 2011 until Wed Mar 17 02:51:37 PDT 2021

adding as trusted cert:
  Subject: OU=Class 1 Public Primary Certification Authority, O="VeriSign, Inc.", C=US
  Issuer:  OU=Class 1 Public Primary Certification Authority, O="VeriSign, Inc.", C=US
  Algorithm: RSA; Serial number: 0x3f691e819cf09a4af373ffb948a2e4dd
  Valid from Sun Jan 28 16:00:00 PST 1996 until Wed Aug 02 16:59:59 PDT 2028

adding as trusted cert:
  Subject: OU=ePKI Root Certification Authority, O="Chunghwa Telecom Co., Ltd.", C=TW
  Issuer:  OU=ePKI Root Certification Authority, O="Chunghwa Telecom Co., Ltd.", C=TW
  Algorithm: RSA; Serial number: 0x15c8bd65475cafb897005ee406d2bc9d
  Valid from Sun Dec 19 18:31:27 PST 2004 until Tue Dec 19 18:31:27 PST 2034

adding as trusted cert:
  Subject: CN=DigiCert High Assurance EV Root CA, OU=www.digicert.com, O=DigiCert Inc, C=US
  Issuer:  CN=DigiCert High Assurance EV Root CA, OU=www.digicert.com, O=DigiCert Inc, C=US
  Algorithm: RSA; Serial number: 0x2ac5c266a0b409b8f0b79f2ae462577
  Valid from Thu Nov 09 16:00:00 PST 2006 until Sun Nov 09 16:00:00 PST 2031

adding as trusted cert:
  Subject: CN=QuoVadis Root CA 2, O=QuoVadis Limited, C=BM
  Issuer:  CN=QuoVadis Root CA 2, O=QuoVadis Limited, C=BM
  Algorithm: RSA; Serial number: 0x509
  Valid from Fri Nov 24 10:27:00 PST 2006 until Mon Nov 24 10:23:33 PST 2031

adding as trusted cert:
  Subject: CN=Baltimore CyberTrust Code Signing Root, OU=CyberTrust, O=Baltimore, C=IE
  Issuer:  CN=Baltimore CyberTrust Code Signing Root, OU=CyberTrust, O=Baltimore, C=IE
  Algorithm: RSA; Serial number: 0x20000bf
  Valid from Wed May 17 07:01:00 PDT 2000 until Sat May 17 16:59:00 PDT 2025

adding as trusted cert:
  Subject: CN=T-TeleSec GlobalRoot Class 3, OU=T-Systems Trust Center, O=T-Systems Enterprise Services GmbH, C=DE
  Issuer:  CN=T-TeleSec GlobalRoot Class 3, OU=T-Systems Trust Center, O=T-Systems Enterprise Services GmbH, C=DE
  Algorithm: RSA; Serial number: 0x1
  Valid from Wed Oct 01 03:29:56 PDT 2008 until Sat Oct 01 16:59:59 PDT 2033

adding as trusted cert:
  Subject: CN=Entrust.net Certification Authority (2048), OU=(c) 1999 Entrust.net Limited, OU=www.entrust.net/CPS_2048 incorp. by ref. (limits liab.), O=Entrust.net
  Issuer:  CN=Entrust.net Certification Authority (2048), OU=(c) 1999 Entrust.net Limited, OU=www.entrust.net/CPS_2048 incorp. by ref. (limits liab.), O=Entrust.net
  Algorithm: RSA; Serial number: 0x3863def8
  Valid from Fri Dec 24 09:50:51 PST 1999 until Tue Jul 24 07:15:12 PDT 2029

adding as trusted cert:
  Subject: CN=TC TrustCenter Class 4 CA II, OU=TC TrustCenter Class 4 CA, O=TC TrustCenter GmbH, C=DE
  Issuer:  CN=TC TrustCenter Class 4 CA II, OU=TC TrustCenter Class 4 CA, O=TC TrustCenter GmbH, C=DE
  Algorithm: RSA; Serial number: 0x5c00001000241d0060a4dce7510
  Valid from Thu Mar 23 06:10:23 PST 2006 until Wed Dec 31 14:59:59 PST 2025

adding as trusted cert:
  Subject: OU=VeriSign Trust Network, OU="(c) 1998 VeriSign, Inc. - For authorized use only", OU=Class 2 Public Primary Certification Authority - G2, O="VeriSign, Inc.", C=US
  Issuer:  OU=VeriSign Trust Network, OU="(c) 1998 VeriSign, Inc. - For authorized use only", OU=Class 2 Public Primary Certification Authority - G2, O="VeriSign, Inc.", C=US
  Algorithm: RSA; Serial number: 0xb92f60cc889fa17a4609b85b706c8aaf
  Valid from Sun May 17 17:00:00 PDT 1998 until Tue Aug 01 16:59:59 PDT 2028

adding as trusted cert:
  Subject: CN=thawte Primary Root CA - G2, OU="(c) 2007 thawte, Inc. - For authorized use only", O="thawte, Inc.", C=US
  Issuer:  CN=thawte Primary Root CA - G2, OU="(c) 2007 thawte, Inc. - For authorized use only", O="thawte, Inc.", C=US
  Algorithm: EC; Serial number: 0x35fc265cd9844fc93d263d579baed756
  Valid from Sun Nov 04 16:00:00 PST 2007 until Mon Jan 18 15:59:59 PST 2038

adding as trusted cert:
  Subject: EMAILADDRESS=server-certs@thawte.com, CN=Thawte Server CA, OU=Certification Services Division, O=Thawte Consulting cc, L=Cape Town, ST=Western Cape, C=ZA
  Issuer:  EMAILADDRESS=server-certs@thawte.com, CN=Thawte Server CA, OU=Certification Services Division, O=Thawte Consulting cc, L=Cape Town, ST=Western Cape, C=ZA
  Algorithm: RSA; Serial number: 0x34a4fff630af4ca53c331742a1946675
  Valid from Wed Jul 31 17:00:00 PDT 1996 until Fri Jan 01 15:59:59 PST 2021

adding as trusted cert:
  Subject: CN=Deutsche Telekom Root CA 2, OU=T-TeleSec Trust Center, O=Deutsche Telekom AG, C=DE
  Issuer:  CN=Deutsche Telekom Root CA 2, OU=T-TeleSec Trust Center, O=Deutsche Telekom AG, C=DE
  Algorithm: RSA; Serial number: 0x26
  Valid from Fri Jul 09 05:11:00 PDT 1999 until Tue Jul 09 16:59:00 PDT 2019

adding as trusted cert:
  Subject: CN=GeoTrust Universal CA, O=GeoTrust Inc., C=US
  Issuer:  CN=GeoTrust Universal CA, O=GeoTrust Inc., C=US
  Algorithm: RSA; Serial number: 0x1
  Valid from Wed Mar 03 21:00:00 PST 2004 until Sat Mar 03 21:00:00 PST 2029

adding as trusted cert:
  Subject: CN=TC TrustCenter Universal CA I, OU=TC TrustCenter Universal CA, O=TC TrustCenter GmbH, C=DE
  Issuer:  CN=TC TrustCenter Universal CA I, OU=TC TrustCenter Universal CA, O=TC TrustCenter GmbH, C=DE
  Algorithm: RSA; Serial number: 0x1da200010002ecb76080788db606
  Valid from Wed Mar 22 07:54:28 PST 2006 until Wed Dec 31 14:59:59 PST 2025

adding as trusted cert:
  Subject: CN=T-TeleSec GlobalRoot Class 2, OU=T-Systems Trust Center, O=T-Systems Enterprise Services GmbH, C=DE
  Issuer:  CN=T-TeleSec GlobalRoot Class 2, OU=T-Systems Trust Center, O=T-Systems Enterprise Services GmbH, C=DE
  Algorithm: RSA; Serial number: 0x1
  Valid from Wed Oct 01 03:40:14 PDT 2008 until Sat Oct 01 16:59:59 PDT 2033

adding as trusted cert:
  Subject: CN=VeriSign Class 3 Public Primary Certification Authority - G3, OU="(c) 1999 VeriSign, Inc. - For authorized use only", OU=VeriSign Trust Network, O="VeriSign, Inc.", C=US
  Issuer:  CN=VeriSign Class 3 Public Primary Certification Authority - G3, OU="(c) 1999 VeriSign, Inc. - For authorized use only", OU=VeriSign Trust Network, O="VeriSign, Inc.", C=US
  Algorithm: RSA; Serial number: 0x9b7e0649a33e62b9d5ee90487129ef57
  Valid from Thu Sep 30 17:00:00 PDT 1999 until Wed Jul 16 16:59:59 PDT 2036

adding as trusted cert:
  Subject: EMAILADDRESS=info@valicert.com, CN=http://www.valicert.com/, OU=ValiCert Class 2 Policy Validation Authority, O="ValiCert, Inc.", L=ValiCert Validation Network
  Issuer:  EMAILADDRESS=info@valicert.com, CN=http://www.valicert.com/, OU=ValiCert Class 2 Policy Validation Authority, O="ValiCert, Inc.", L=ValiCert Validation Network
  Algorithm: RSA; Serial number: 0x1
  Valid from Fri Jun 25 17:19:54 PDT 1999 until Tue Jun 25 17:19:54 PDT 2019

adding as trusted cert:
  Subject: CN=DigiCert Global Root CA, OU=www.digicert.com, O=DigiCert Inc, C=US
  Issuer:  CN=DigiCert Global Root CA, OU=www.digicert.com, O=DigiCert Inc, C=US
  Algorithm: RSA; Serial number: 0x83be056904246b1a1756ac95991c74a
  Valid from Thu Nov 09 16:00:00 PST 2006 until Sun Nov 09 16:00:00 PST 2031

adding as trusted cert:
  Subject: CN=AddTrust Class 1 CA Root, OU=AddTrust TTP Network, O=AddTrust AB, C=SE
  Issuer:  CN=AddTrust Class 1 CA Root, OU=AddTrust TTP Network, O=AddTrust AB, C=SE
  Algorithm: RSA; Serial number: 0x1
  Valid from Tue May 30 03:38:31 PDT 2000 until Sat May 30 03:38:31 PDT 2020

adding as trusted cert:
  Subject: CN=AddTrust External CA Root, OU=AddTrust External TTP Network, O=AddTrust AB, C=SE
  Issuer:  CN=AddTrust External CA Root, OU=AddTrust External TTP Network, O=AddTrust AB, C=SE
  Algorithm: RSA; Serial number: 0x1
  Valid from Tue May 30 03:48:38 PDT 2000 until Sat May 30 03:48:38 PDT 2020

adding as trusted cert:
  Subject: CN=Thawte Timestamping CA, OU=Thawte Certification, O=Thawte, L=Durbanville, ST=Western Cape, C=ZA
  Issuer:  CN=Thawte Timestamping CA, OU=Thawte Certification, O=Thawte, L=Durbanville, ST=Western Cape, C=ZA
  Algorithm: RSA; Serial number: 0x67c8e1e8e3be1cbdfc913b8ea6238749
  Valid from Tue Dec 31 16:00:00 PST 1996 until Fri Jan 01 15:59:59 PST 2021

adding as trusted cert:
  Subject: CN=Class 2 Primary CA, O=Certplus, C=FR
  Issuer:  CN=Class 2 Primary CA, O=Certplus, C=FR
  Algorithm: RSA; Serial number: 0x85bd4bf3d8dae369f694d75fc3a54423
  Valid from Wed Jul 07 10:05:00 PDT 1999 until Sat Jul 06 16:59:59 PDT 2019

adding as trusted cert:
  Subject: OU=Equifax Secure Certificate Authority, O=Equifax, C=US
  Issuer:  OU=Equifax Secure Certificate Authority, O=Equifax, C=US
  Algorithm: RSA; Serial number: 0x35def4cf
  Valid from Sat Aug 22 09:41:51 PDT 1998 until Wed Aug 22 09:41:51 PDT 2018

adding as trusted cert:
  Subject: CN=Chambers of Commerce Root - 2008, O=AC Camerfirma S.A., SERIALNUMBER=A82743287, L=Madrid (see current address at www.camerfirma.com/address), C=EU
  Issuer:  CN=Chambers of Commerce Root - 2008, O=AC Camerfirma S.A., SERIALNUMBER=A82743287, L=Madrid (see current address at www.camerfirma.com/address), C=EU
  Algorithm: RSA; Serial number: 0xa3da427ea4b1aeda
  Valid from Fri Aug 01 05:29:50 PDT 2008 until Sat Jul 31 05:29:50 PDT 2038

adding as trusted cert:
  Subject: CN=VeriSign Class 2 Public Primary Certification Authority - G3, OU="(c) 1999 VeriSign, Inc. - For authorized use only", OU=VeriSign Trust Network, O="VeriSign, Inc.", C=US
  Issuer:  CN=VeriSign Class 2 Public Primary Certification Authority - G3, OU="(c) 1999 VeriSign, Inc. - For authorized use only", OU=VeriSign Trust Network, O="VeriSign, Inc.", C=US
  Algorithm: RSA; Serial number: 0x6170cb498c5f984529e7b0a6d9505b7a
  Valid from Thu Sep 30 17:00:00 PDT 1999 until Wed Jul 16 16:59:59 PDT 2036

adding as trusted cert:
  Subject: CN=AAA Certificate Services, O=Comodo CA Limited, L=Salford, ST=Greater Manchester, C=GB
  Issuer:  CN=AAA Certificate Services, O=Comodo CA Limited, L=Salford, ST=Greater Manchester, C=GB
  Algorithm: RSA; Serial number: 0x1
  Valid from Wed Dec 31 16:00:00 PST 2003 until Sun Dec 31 15:59:59 PST 2028

adding as trusted cert:
  Subject: OU=Starfield Class 2 Certification Authority, O="Starfield Technologies, Inc.", C=US
  Issuer:  OU=Starfield Class 2 Certification Authority, O="Starfield Technologies, Inc.", C=US
  Algorithm: RSA; Serial number: 0x0
  Valid from Tue Jun 29 10:39:16 PDT 2004 until Thu Jun 29 10:39:16 PDT 2034

adding as trusted cert:
  Subject: OU=VeriSign Trust Network, OU="(c) 1998 VeriSign, Inc. - For authorized use only", OU=Class 1 Public Primary Certification Authority - G2, O="VeriSign, Inc.", C=US
  Issuer:  OU=VeriSign Trust Network, OU="(c) 1998 VeriSign, Inc. - For authorized use only", OU=Class 1 Public Primary Certification Authority - G2, O="VeriSign, Inc.", C=US
  Algorithm: RSA; Serial number: 0x4cc7eaaa983e71d39310f83d3a899192
  Valid from Sun May 17 17:00:00 PDT 1998 until Tue Aug 01 16:59:59 PDT 2028

adding as trusted cert:
  Subject: CN=DigiCert Assured ID Root CA, OU=www.digicert.com, O=DigiCert Inc, C=US
  Issuer:  CN=DigiCert Assured ID Root CA, OU=www.digicert.com, O=DigiCert Inc, C=US
  Algorithm: RSA; Serial number: 0xce7e0e517d846fe8fe560fc1bf03039
  Valid from Thu Nov 09 16:00:00 PST 2006 until Sun Nov 09 16:00:00 PST 2031

adding as trusted cert:
  Subject: CN=GlobalSign Root CA, OU=Root CA, O=GlobalSign nv-sa, C=BE
  Issuer:  CN=GlobalSign Root CA, OU=Root CA, O=GlobalSign nv-sa, C=BE
  Algorithm: RSA; Serial number: 0x40000000001154b5ac394
  Valid from Tue Sep 01 05:00:00 PDT 1998 until Fri Jan 28 04:00:00 PST 2028

adding as trusted cert:
  Subject: CN=Equifax Secure Global eBusiness CA-1, O=Equifax Secure Inc., C=US
  Issuer:  CN=Equifax Secure Global eBusiness CA-1, O=Equifax Secure Inc., C=US
  Algorithm: RSA; Serial number: 0xc3517
  Valid from Sun Jun 20 21:00:00 PDT 1999 until Sun Jun 21 21:00:00 PDT 2020

adding as trusted cert:
  Subject: OU=VeriSign Trust Network, OU="(c) 1998 VeriSign, Inc. - For authorized use only", OU=Class 3 Public Primary Certification Authority - G2, O="VeriSign, Inc.", C=US
  Issuer:  OU=VeriSign Trust Network, OU="(c) 1998 VeriSign, Inc. - For authorized use only", OU=Class 3 Public Primary Certification Authority - G2, O="VeriSign, Inc.", C=US
  Algorithm: RSA; Serial number: 0x7dd9fe07cfa81eb7107967fba78934c6
  Valid from Sun May 17 17:00:00 PDT 1998 until Tue Aug 01 16:59:59 PDT 2028

adding as trusted cert:
  Subject: CN=QuoVadis Root CA 3, O=QuoVadis Limited, C=BM
  Issuer:  CN=QuoVadis Root CA 3, O=QuoVadis Limited, C=BM
  Algorithm: RSA; Serial number: 0x5c6
  Valid from Fri Nov 24 11:11:23 PST 2006 until Mon Nov 24 11:06:44 PST 2031

adding as trusted cert:
  Subject: CN=Certum CA, O=Unizeto Sp. z o.o., C=PL
  Issuer:  CN=Certum CA, O=Unizeto Sp. z o.o., C=PL
  Algorithm: RSA; Serial number: 0x10020
  Valid from Tue Jun 11 03:46:39 PDT 2002 until Fri Jun 11 03:46:39 PDT 2027

adding as trusted cert:
  Subject: CN=GlobalSign, O=GlobalSign, OU=GlobalSign Root CA - R2
  Issuer:  CN=GlobalSign, O=GlobalSign, OU=GlobalSign Root CA - R2
  Algorithm: RSA; Serial number: 0x400000000010f8626e60d
  Valid from Fri Dec 15 00:00:00 PST 2006 until Wed Dec 15 00:00:00 PST 2021

adding as trusted cert:
  Subject: EMAILADDRESS=premium-server@thawte.com, CN=Thawte Premium Server CA, OU=Certification Services Division, O=Thawte Consulting cc, L=Cape Town, ST=Western Cape, C=ZA
  Issuer:  EMAILADDRESS=premium-server@thawte.com, CN=Thawte Premium Server CA, OU=Certification Services Division, O=Thawte Consulting cc, L=Cape Town, ST=Western Cape, C=ZA
  Algorithm: RSA; Serial number: 0x36122296c5e338a520a1d25f4cd70954
  Valid from Wed Jul 31 17:00:00 PDT 1996 until Fri Jan 01 15:59:59 PST 2021

adding as trusted cert:
  Subject: CN=SecureTrust CA, O=SecureTrust Corporation, C=US
  Issuer:  CN=SecureTrust CA, O=SecureTrust Corporation, C=US
  Algorithm: RSA; Serial number: 0xcf08e5c0816a5ad427ff0eb271859d0
  Valid from Tue Nov 07 11:31:18 PST 2006 until Mon Dec 31 11:40:55 PST 2029

adding as trusted cert:
  Subject: CN=Go Daddy Root Certificate Authority - G2, O="GoDaddy.com, Inc.", L=Scottsdale, ST=Arizona, C=US
  Issuer:  CN=Go Daddy Root Certificate Authority - G2, O="GoDaddy.com, Inc.", L=Scottsdale, ST=Arizona, C=US
  Algorithm: RSA; Serial number: 0x0
  Valid from Mon Aug 31 17:00:00 PDT 2009 until Thu Dec 31 15:59:59 PST 2037

adding as trusted cert:
  Subject: CN=Chambers of Commerce Root, OU=http://www.chambersign.org, O=AC Camerfirma SA CIF A82743287, C=EU
  Issuer:  CN=Chambers of Commerce Root, OU=http://www.chambersign.org, O=AC Camerfirma SA CIF A82743287, C=EU
  Algorithm: RSA; Serial number: 0x0
  Valid from Tue Sep 30 09:13:43 PDT 2003 until Wed Sep 30 09:13:44 PDT 2037

adding as trusted cert:
  Subject: CN=Entrust Root Certification Authority - G2, OU="(c) 2009 Entrust, Inc. - for authorized use only", OU=See www.entrust.net/legal-terms, O="Entrust, Inc.", C=US
  Issuer:  CN=Entrust Root Certification Authority - G2, OU="(c) 2009 Entrust, Inc. - for authorized use only", OU=See www.entrust.net/legal-terms, O="Entrust, Inc.", C=US
  Algorithm: RSA; Serial number: 0x4a538c28
  Valid from Tue Jul 07 10:25:54 PDT 2009 until Sat Dec 07 09:55:54 PST 2030

adding as trusted cert:
  Subject: CN=Class 3P Primary CA, O=Certplus, C=FR
  Issuer:  CN=Class 3P Primary CA, O=Certplus, C=FR
  Algorithm: RSA; Serial number: 0xbf5cdbb6f21c6ec04deb7a023b36e879
  Valid from Wed Jul 07 10:10:00 PDT 1999 until Sat Jul 06 16:59:59 PDT 2019

adding as trusted cert:
  Subject: CN=VeriSign Class 3 Public Primary Certification Authority - G5, OU="(c) 2006 VeriSign, Inc. - For authorized use only", OU=VeriSign Trust Network, O="VeriSign, Inc.", C=US
  Issuer:  CN=VeriSign Class 3 Public Primary Certification Authority - G5, OU="(c) 2006 VeriSign, Inc. - For authorized use only", OU=VeriSign Trust Network, O="VeriSign, Inc.", C=US
  Algorithm: RSA; Serial number: 0x18dad19e267de8bb4a2158cdcc6b3b4a
  Valid from Tue Nov 07 16:00:00 PST 2006 until Wed Jul 16 16:59:59 PDT 2036

adding as trusted cert:
  Subject: CN=VeriSign Universal Root Certification Authority, OU="(c) 2008 VeriSign, Inc. - For authorized use only", OU=VeriSign Trust Network, O="VeriSign, Inc.", C=US
  Issuer:  CN=VeriSign Universal Root Certification Authority, OU="(c) 2008 VeriSign, Inc. - For authorized use only", OU=VeriSign Trust Network, O="VeriSign, Inc.", C=US
  Algorithm: RSA; Serial number: 0x401ac46421b31321030ebbe4121ac51d
  Valid from Tue Apr 01 17:00:00 PDT 2008 until Tue Dec 01 15:59:59 PST 2037

adding as trusted cert:
  Subject: CN=GeoTrust Global CA, O=GeoTrust Inc., C=US
  Issuer:  CN=GeoTrust Global CA, O=GeoTrust Inc., C=US
  Algorithm: RSA; Serial number: 0x23456
  Valid from Mon May 20 21:00:00 PDT 2002 until Fri May 20 21:00:00 PDT 2022

adding as trusted cert:
  Subject: OU=Class 3 Public Primary Certification Authority, O="VeriSign, Inc.", C=US
  Issuer:  OU=Class 3 Public Primary Certification Authority, O="VeriSign, Inc.", C=US
  Algorithm: RSA; Serial number: 0x3c9131cb1ff6d01b0e9ab8d044bf12be
  Valid from Sun Jan 28 16:00:00 PST 1996 until Wed Aug 02 16:59:59 PDT 2028

adding as trusted cert:
  Subject: CN=Certum Trusted Network CA, OU=Certum Certification Authority, O=Unizeto Technologies S.A., C=PL
  Issuer:  CN=Certum Trusted Network CA, OU=Certum Certification Authority, O=Unizeto Technologies S.A., C=PL
  Algorithm: RSA; Serial number: 0x444c0
  Valid from Wed Oct 22 05:07:37 PDT 2008 until Mon Dec 31 04:07:37 PST 2029

adding as trusted cert:
  Subject: CN=AffirmTrust Premium, O=AffirmTrust, C=US
  Issuer:  CN=AffirmTrust Premium, O=AffirmTrust, C=US
  Algorithm: RSA; Serial number: 0x6d8c1446b1a60aee
  Valid from Fri Jan 29 06:10:36 PST 2010 until Mon Dec 31 06:10:36 PST 2040

adding as trusted cert:
  Subject: OU=Security Communication RootCA1, O=SECOM Trust.net, C=JP
  Issuer:  OU=Security Communication RootCA1, O=SECOM Trust.net, C=JP
  Algorithm: RSA; Serial number: 0x0
  Valid from Mon Sep 29 21:20:49 PDT 2003 until Fri Sep 29 21:20:49 PDT 2023

adding as trusted cert:
  Subject: CN=Sonera Class1 CA, O=Sonera, C=FI
  Issuer:  CN=Sonera Class1 CA, O=Sonera, C=FI
  Algorithm: RSA; Serial number: 0x24
  Valid from Fri Apr 06 03:49:13 PDT 2001 until Tue Apr 06 03:49:13 PDT 2021

adding as trusted cert:
  Subject: OU=Go Daddy Class 2 Certification Authority, O="The Go Daddy Group, Inc.", C=US
  Issuer:  OU=Go Daddy Class 2 Certification Authority, O="The Go Daddy Group, Inc.", C=US
  Algorithm: RSA; Serial number: 0x0
  Valid from Tue Jun 29 10:06:20 PDT 2004 until Thu Jun 29 10:06:20 PDT 2034

adding as trusted cert:
  Subject: CN=UTN-USERFirst-Hardware, OU=http://www.usertrust.com, O=The USERTRUST Network, L=Salt Lake City, ST=UT, C=US
  Issuer:  CN=UTN-USERFirst-Hardware, OU=http://www.usertrust.com, O=The USERTRUST Network, L=Salt Lake City, ST=UT, C=US
  Algorithm: RSA; Serial number: 0x44be0c8b500024b411d3362afe650afd
  Valid from Fri Jul 09 11:10:42 PDT 1999 until Tue Jul 09 11:19:22 PDT 2019

adding as trusted cert:
  Subject: CN=UTN-USERFirst-Client Authentication and Email, OU=http://www.usertrust.com, O=The USERTRUST Network, L=Salt Lake City, ST=UT, C=US
  Issuer:  CN=UTN-USERFirst-Client Authentication and Email, OU=http://www.usertrust.com, O=The USERTRUST Network, L=Salt Lake City, ST=UT, C=US
  Algorithm: RSA; Serial number: 0x44be0c8b500024b411d336252567c989
  Valid from Fri Jul 09 10:28:50 PDT 1999 until Tue Jul 09 10:36:58 PDT 2019

adding as trusted cert:
  Subject: CN=GeoTrust Primary Certification Authority, O=GeoTrust Inc., C=US
  Issuer:  CN=GeoTrust Primary Certification Authority, O=GeoTrust Inc., C=US
  Algorithm: RSA; Serial number: 0x18acb56afd69b6153a636cafdafac4a1
  Valid from Sun Nov 26 16:00:00 PST 2006 until Wed Jul 16 16:59:59 PDT 2036

adding as trusted cert:
  Subject: CN=GlobalSign, O=GlobalSign, OU=GlobalSign Root CA - R3
  Issuer:  CN=GlobalSign, O=GlobalSign, OU=GlobalSign Root CA - R3
  Algorithm: RSA; Serial number: 0x4000000000121585308a2
  Valid from Wed Mar 18 03:00:00 PDT 2009 until Sun Mar 18 03:00:00 PDT 2029

adding as trusted cert:
  Subject: CN=Buypass Class 3 Root CA, O=Buypass AS-983163327, C=NO
  Issuer:  CN=Buypass Class 3 Root CA, O=Buypass AS-983163327, C=NO
  Algorithm: RSA; Serial number: 0x2
  Valid from Tue Oct 26 01:28:58 PDT 2010 until Fri Oct 26 01:28:58 PDT 2040

adding as trusted cert:
  Subject: CN=GeoTrust Primary Certification Authority - G2, OU=(c) 2007 GeoTrust Inc. - For authorized use only, O=GeoTrust Inc., C=US
  Issuer:  CN=GeoTrust Primary Certification Authority - G2, OU=(c) 2007 GeoTrust Inc. - For authorized use only, O=GeoTrust Inc., C=US
  Algorithm: EC; Serial number: 0x3cb2f4480a00e2feeb243b5e603ec36b
  Valid from Sun Nov 04 16:00:00 PST 2007 until Mon Jan 18 15:59:59 PST 2038

adding as trusted cert:
  Subject: CN=AffirmTrust Networking, O=AffirmTrust, C=US
  Issuer:  CN=AffirmTrust Networking, O=AffirmTrust, C=US
  Algorithm: RSA; Serial number: 0x7c4f04391cd4992d
  Valid from Fri Jan 29 06:08:24 PST 2010 until Tue Dec 31 06:08:24 PST 2030

adding as trusted cert:
  Subject: CN=VeriSign Class 1 Public Primary Certification Authority - G3, OU="(c) 1999 VeriSign, Inc. - For authorized use only", OU=VeriSign Trust Network, O="VeriSign, Inc.", C=US
  Issuer:  CN=VeriSign Class 1 Public Primary Certification Authority - G3, OU="(c) 1999 VeriSign, Inc. - For authorized use only", OU=VeriSign Trust Network, O="VeriSign, Inc.", C=US
  Algorithm: RSA; Serial number: 0x8b5b75568454850b00cfaf3848ceb1a4
  Valid from Thu Sep 30 17:00:00 PDT 1999 until Wed Jul 16 16:59:59 PDT 2036

adding as trusted cert:
  Subject: CN=America Online Root Certification Authority 1, O=America Online Inc., C=US
  Issuer:  CN=America Online Root Certification Authority 1, O=America Online Inc., C=US
  Algorithm: RSA; Serial number: 0x1
  Valid from Mon May 27 23:00:00 PDT 2002 until Thu Nov 19 12:43:00 PST 2037

adding as trusted cert:
  Subject: OU=Security Communication RootCA2, O="SECOM Trust Systems CO.,LTD.", C=JP
  Issuer:  OU=Security Communication RootCA2, O="SECOM Trust Systems CO.,LTD.", C=JP
  Algorithm: RSA; Serial number: 0x0
  Valid from Thu May 28 22:00:39 PDT 2009 until Mon May 28 22:00:39 PDT 2029

adding as trusted cert:
  Subject: CN=Buypass Class 2 Root CA, O=Buypass AS-983163327, C=NO
  Issuer:  CN=Buypass Class 2 Root CA, O=Buypass AS-983163327, C=NO
  Algorithm: RSA; Serial number: 0x2
  Valid from Tue Oct 26 01:38:03 PDT 2010 until Fri Oct 26 01:38:03 PDT 2040

adding as trusted cert:
  Subject: CN=GeoTrust Primary Certification Authority - G3, OU=(c) 2008 GeoTrust Inc. - For authorized use only, O=GeoTrust Inc., C=US
  Issuer:  CN=GeoTrust Primary Certification Authority - G3, OU=(c) 2008 GeoTrust Inc. - For authorized use only, O=GeoTrust Inc., C=US
  Algorithm: RSA; Serial number: 0x15ac6e9419b2794b41f627a9c3180f1f
  Valid from Tue Apr 01 17:00:00 PDT 2008 until Tue Dec 01 15:59:59 PST 2037

adding as trusted cert:
  Subject: CN=Starfield Root Certificate Authority - G2, O="Starfield Technologies, Inc.", L=Scottsdale, ST=Arizona, C=US
  Issuer:  CN=Starfield Root Certificate Authority - G2, O="Starfield Technologies, Inc.", L=Scottsdale, ST=Arizona, C=US
  Algorithm: RSA; Serial number: 0x0
  Valid from Mon Aug 31 17:00:00 PDT 2009 until Thu Dec 31 15:59:59 PST 2037

adding as trusted cert:
  Subject: CN=VeriSign Class 3 Public Primary Certification Authority - G4, OU="(c) 2007 VeriSign, Inc. - For authorized use only", OU=VeriSign Trust Network, O="VeriSign, Inc.", C=US
  Issuer:  CN=VeriSign Class 3 Public Primary Certification Authority - G4, OU="(c) 2007 VeriSign, Inc. - For authorized use only", OU=VeriSign Trust Network, O="VeriSign, Inc.", C=US
  Algorithm: EC; Serial number: 0x2f80fe238c0e220f486712289187acb3
  Valid from Sun Nov 04 16:00:00 PST 2007 until Mon Jan 18 15:59:59 PST 2038

adding as trusted cert:
  Subject: CN=UTN-USERFirst-Object, OU=http://www.usertrust.com, O=The USERTRUST Network, L=Salt Lake City, ST=UT, C=US
  Issuer:  CN=UTN-USERFirst-Object, OU=http://www.usertrust.com, O=The USERTRUST Network, L=Salt Lake City, ST=UT, C=US
  Algorithm: RSA; Serial number: 0x44be0c8b500024b411d3362de0b35f1b
  Valid from Fri Jul 09 11:31:20 PDT 1999 until Tue Jul 09 11:40:36 PDT 2019

adding as trusted cert:
  Subject: CN=UTN - DATACorp SGC, OU=http://www.usertrust.com, O=The USERTRUST Network, L=Salt Lake City, ST=UT, C=US
  Issuer:  CN=UTN - DATACorp SGC, OU=http://www.usertrust.com, O=The USERTRUST Network, L=Salt Lake City, ST=UT, C=US
  Algorithm: RSA; Serial number: 0x44be0c8b500021b411d32a6806a9ad69
  Valid from Thu Jun 24 11:57:21 PDT 1999 until Mon Jun 24 12:06:30 PDT 2019

adding as trusted cert:
  Subject: CN=Sonera Class2 CA, O=Sonera, C=FI
  Issuer:  CN=Sonera Class2 CA, O=Sonera, C=FI
  Algorithm: RSA; Serial number: 0x1d
  Valid from Fri Apr 06 00:29:40 PDT 2001 until Tue Apr 06 00:29:40 PDT 2021

adding as trusted cert:
  Subject: CN=Equifax Secure eBusiness CA-1, O=Equifax Secure Inc., C=US
  Issuer:  CN=Equifax Secure eBusiness CA-1, O=Equifax Secure Inc., C=US
  Algorithm: RSA; Serial number: 0x59e3
  Valid from Sun Jun 20 21:00:00 PDT 1999 until Sun Jun 21 21:00:00 PDT 2020

adding as trusted cert:
  Subject: CN=Swisscom Root CA 2, OU=Digital Certificate Services, O=Swisscom, C=ch
  Issuer:  CN=Swisscom Root CA 2, OU=Digital Certificate Services, O=Swisscom, C=ch
  Algorithm: RSA; Serial number: 0x1e9e28e848f2e5efc37c4a1e5a1867b6
  Valid from Fri Jun 24 01:38:14 PDT 2011 until Wed Jun 25 00:38:14 PDT 2031

adding as trusted cert:
  Subject: CN=TC TrustCenter Class 2 CA II, OU=TC TrustCenter Class 2 CA, O=TC TrustCenter GmbH, C=DE
  Issuer:  CN=TC TrustCenter Class 2 CA II, OU=TC TrustCenter Class 2 CA, O=TC TrustCenter GmbH, C=DE
  Algorithm: RSA; Serial number: 0x2e6a000100021fd752212c115c3b
  Valid from Thu Jan 12 06:38:43 PST 2006 until Wed Dec 31 14:59:59 PST 2025

trigger seeding of SecureRandom
done seeding SecureRandom
Ignoring unavailable cipher suite: TLS_ECDHE_RSA_WITH_AES_256_CBC_SHA
Ignoring unavailable cipher suite: TLS_DHE_RSA_WITH_AES_256_CBC_SHA
Ignoring unavailable cipher suite: TLS_ECDH_RSA_WITH_AES_256_CBC_SHA
Ignoring unsupported cipher suite: TLS_DHE_DSS_WITH_AES_128_CBC_SHA256
Ignoring unsupported cipher suite: TLS_DHE_DSS_WITH_AES_256_CBC_SHA256
Ignoring unsupported cipher suite: TLS_DHE_RSA_WITH_AES_128_CBC_SHA256
Ignoring unsupported cipher suite: TLS_ECDH_RSA_WITH_AES_128_CBC_SHA256
Ignoring unsupported cipher suite: TLS_DHE_RSA_WITH_AES_256_CBC_SHA256
Ignoring unsupported cipher suite: TLS_ECDHE_RSA_WITH_AES_256_CBC_SHA384
Ignoring unsupported cipher suite: TLS_ECDH_ECDSA_WITH_AES_256_CBC_SHA384
Ignoring unsupported cipher suite: TLS_RSA_WITH_AES_256_CBC_SHA256
Ignoring unavailable cipher suite: TLS_ECDHE_ECDSA_WITH_AES_256_CBC_SHA
Ignoring unsupported cipher suite: TLS_ECDHE_RSA_WITH_AES_128_CBC_SHA256
Ignoring unsupported cipher suite: TLS_ECDHE_ECDSA_WITH_AES_256_CBC_SHA384
Ignoring unavailable cipher suite: TLS_DHE_DSS_WITH_AES_256_CBC_SHA
Ignoring unsupported cipher suite: TLS_ECDH_RSA_WITH_AES_256_CBC_SHA384
Ignoring unsupported cipher suite: TLS_ECDHE_ECDSA_WITH_AES_128_CBC_SHA256
Ignoring unsupported cipher suite: TLS_ECDH_ECDSA_WITH_AES_128_CBC_SHA256
Ignoring unavailable cipher suite: TLS_ECDH_ECDSA_WITH_AES_256_CBC_SHA
Ignoring unavailable cipher suite: TLS_RSA_WITH_AES_256_CBC_SHA
Ignoring unsupported cipher suite: TLS_RSA_WITH_AES_128_CBC_SHA256
Allow unsafe renegotiation: false
Allow legacy hello messages: true
Is initial handshake: true
Is secure renegotiation: false
main, setSoTimeout(0) called
%% No cached client session
*** ClientHello, TLSv1
RandomCookie:  GMT: 1437119876 bytes = { 49, 97, 205, 148, 126, 16, 250, 24, 190, 177, 245, 94, 186, 45, 16, 82, 1, 188, 20, 137, 185, 107, 204, 27, 67, 68, 217, 196 }
Session ID:  {}
Cipher Suites: [TLS_ECDHE_ECDSA_WITH_AES_128_CBC_SHA, TLS_ECDHE_RSA_WITH_AES_128_CBC_SHA, TLS_RSA_WITH_AES_128_CBC_SHA, TLS_ECDH_ECDSA_WITH_AES_128_CBC_SHA, TLS_ECDH_RSA_WITH_AES_128_CBC_SHA, TLS_DHE_RSA_WITH_AES_128_CBC_SHA, TLS_DHE_DSS_WITH_AES_128_CBC_SHA, TLS_ECDHE_ECDSA_WITH_3DES_EDE_CBC_SHA, TLS_ECDHE_RSA_WITH_3DES_EDE_CBC_SHA, SSL_RSA_WITH_3DES_EDE_CBC_SHA, TLS_ECDH_ECDSA_WITH_3DES_EDE_CBC_SHA, TLS_ECDH_RSA_WITH_3DES_EDE_CBC_SHA, SSL_DHE_RSA_WITH_3DES_EDE_CBC_SHA, SSL_DHE_DSS_WITH_3DES_EDE_CBC_SHA, TLS_ECDHE_ECDSA_WITH_RC4_128_SHA, TLS_ECDHE_RSA_WITH_RC4_128_SHA, SSL_RSA_WITH_RC4_128_SHA, TLS_ECDH_ECDSA_WITH_RC4_128_SHA, TLS_ECDH_RSA_WITH_RC4_128_SHA, SSL_RSA_WITH_RC4_128_MD5, TLS_EMPTY_RENEGOTIATION_INFO_SCSV]
Compression Methods:  { 0 }
Extension elliptic_curves, curve names: {secp256r1, sect163k1, sect163r2, secp192r1, secp224r1, sect233k1, sect233r1, sect283k1, sect283r1, secp384r1, sect409k1, sect409r1, secp521r1, sect571k1, sect571r1, secp160k1, secp160r1, secp160r2, sect163r1, secp192k1, sect193r1, sect193r2, secp224k1, sect239k1, secp256k1}
Extension ec_point_formats, formats: [uncompressed]
Extension server_name, server_name: [host_name: apps-stable.ingenuity.com]
***
main, WRITE: TLSv1 Handshake, length = 183
main, READ: TLSv1 Handshake, length = 74
*** ServerHello, TLSv1
RandomCookie:  GMT: 161006516 bytes = { 204, 234, 123, 161, 172, 4, 149, 204, 79, 48, 252, 224, 36, 192, 4, 82, 182, 144, 103, 123, 172, 173, 205, 70, 219, 29, 246, 50 }
Session ID:  {136, 89, 83, 11, 23, 101, 192, 91, 87, 2, 134, 152, 212, 196, 106, 199, 5, 205, 152, 109, 128, 199, 74, 198, 231, 196, 33, 114, 8, 182, 136, 37}
Cipher Suite: SSL_RSA_WITH_RC4_128_MD5
Compression Method: 0
***
Warning: No renegotiation indication extension in ServerHello
%% Initialized:  [Session-1, SSL_RSA_WITH_RC4_128_MD5]
** SSL_RSA_WITH_RC4_128_MD5
main, READ: TLSv1 Handshake, length = 3798
*** Certificate chain
chain [0] = [
[
  Version: V3
  Subject: CN=*.ingenuity.com, OU=PremiumSSL Wildcard, OU=IT, O=INGENUITY SYSTEMS INC, L=REDWOOD CITY, ST=California, C=US
  Signature Algorithm: SHA1withRSA, OID = 1.2.840.113549.1.1.5

  Key:  Sun RSA public key, 2048 bits
  modulus: 23219110445851402848646971673080298155151717840743823541110454912236934709515840518947168426208435012120959790520067906795723716382995147113559347681195122244890850203717604759403839293436121862308670393364120005296131368885298396968575694869469483693800201930421013343811763133640384729912932822236040636521467393299338798321983297819113042151820607663490423637963992710310871419721643546170133930620117740118694471742122978493292924383705962177942095372305516828630501645665189563289284350839114414064689932670990289019458557871309524763341484817377956139139973322869186335323395217411275431204429469887070042971771
  public exponent: 65537
  Validity: [From: Mon Feb 07 16:00:00 PST 2011,
               To: Sun Feb 07 15:59:59 PST 2016]
  Issuer: CN=COMODO High-Assurance Secure Server CA, O=COMODO CA Limited, L=Salford, ST=Greater Manchester, C=GB
  SerialNumber: [    9db8977b cea9bd62 377e99be b98f8cce]

Certificate Extensions: 9
[1]: ObjectId: 1.3.6.1.5.5.7.1.1 Criticality=false
AuthorityInfoAccess [
  [
   accessMethod: caIssuers
   accessLocation: URIName: http://crt.comodoca.com/COMODOHigh-AssuranceSecureServerCA.crt
,
   accessMethod: ocsp
   accessLocation: URIName: http://ocsp.comodoca.com
]
]

[2]: ObjectId: 2.5.29.35 Criticality=false
AuthorityKeyIdentifier [
KeyIdentifier [
0000: 3F D5 B5 D0 D6 44 79 50   4A 17 A3 9B 8C 4A DC B8  ?....DyPJ....J..
0010: B0 22 64 6B                                        ."dk
]
]

[3]: ObjectId: 2.5.29.19 Criticality=true
BasicConstraints:[
  CA:false
  PathLen: undefined
]

[4]: ObjectId: 2.5.29.31 Criticality=false
CRLDistributionPoints [
  [DistributionPoint:
     [URIName: http://crl.comodoca.com/COMODOHigh-AssuranceSecureServerCA.crl]
]]

[5]: ObjectId: 2.5.29.32 Criticality=false
CertificatePolicies [
  [CertificatePolicyId: [1.3.6.1.4.1.6449.1.2.1.3.4]
[PolicyQualifierInfo: [
  qualifierID: 1.3.6.1.5.5.7.2.1
  qualifier: 0000: 16 1D 68 74 74 70 73 3A   2F 2F 73 65 63 75 72 65  ..https://secure
0010: 2E 63 6F 6D 6F 64 6F 2E   63 6F 6D 2F 43 50 53     .comodo.com/CPS

]]  ]
  [CertificatePolicyId: [2.23.140.1.2.2]
[]  ]
]

[6]: ObjectId: 2.5.29.37 Criticality=false
ExtendedKeyUsages [
  serverAuth
  clientAuth
]

[7]: ObjectId: 2.5.29.15 Criticality=true
KeyUsage [
  DigitalSignature
  Key_Encipherment
]

[8]: ObjectId: 2.5.29.17 Criticality=false
SubjectAlternativeName [
  DNSName: *.ingenuity.com
  DNSName: ingenuity.com
]

[9]: ObjectId: 2.5.29.14 Criticality=false
SubjectKeyIdentifier [
KeyIdentifier [
0000: 04 84 60 45 15 75 33 83   68 2E 23 86 65 B7 B1 FD  ..`E.u3.h.#.e...
0010: D7 27 5E BD                                        .'^.
]
]

]
  Algorithm: [SHA1withRSA]
  Signature:
0000: 17 90 C5 B0 08 9A 96 A5   B0 33 55 43 75 A3 27 E3  .........3UCu.'.
0010: EC E7 5B CB C3 73 23 8B   A6 BD 5C 9E BA 0C 60 3F  ..[..s#...\...`?
0020: 00 3E 45 FE 45 5A B6 DD   17 D8 68 6B 19 B6 7F 5D  .>E.EZ....hk...]
0030: 48 1C F2 3A 51 E9 0F B7   22 D8 03 89 F1 EB 09 A9  H..:Q...".......
0040: 0D 79 3C 15 F8 29 B6 1D   EB 27 CC 9C 39 28 7B 40  .y<..)...'..9(.@
0050: 72 BA DC 58 D9 DC 1A 73   C3 1B 98 16 1A 77 89 BB  r..X...s.....w..
0060: 2B 13 64 F2 B3 B7 67 57   D3 44 76 B0 20 D2 E9 63  +.d...gW.Dv. ..c
0070: C9 6B D6 8E 15 CD 5C 94   56 07 83 E3 C3 8E A4 7F  .k....\.V.......
0080: F0 4B 9D 08 52 5C D1 88   AC 9F 22 09 E2 01 B1 DB  .K..R\....".....
0090: FE 4A 4D B5 D2 D8 C1 91   21 9D B6 5D 98 7A AA A4  .JM.....!..].z..
00A0: AD B9 FC 20 B4 91 30 9C   D8 A4 B9 77 25 14 D6 7C  ... ..0....w%...
00B0: 6E F7 AB 33 B8 31 66 ED   C5 6D 21 41 4F 4A FE 0E  n..3.1f..m!AOJ..
00C0: 51 93 D3 82 1B A1 CC 48   F1 BC 94 79 65 FB F2 04  Q......H...ye...
00D0: E5 FD D2 37 F0 B6 B4 F4   E4 FF 03 53 1C 50 6E B7  ...7.......S.Pn.
00E0: 55 99 6F 54 F1 1C 00 FB   AE D9 C2 FD E8 35 C2 40  U.oT.........5.@
00F0: B5 A7 42 1C 9B 3D 1B E7   11 41 13 3D AF 26 89 3F  ..B..=...A.=.&.?

]
chain [1] = [
[
  Version: V3
  Subject: CN=COMODO High-Assurance Secure Server CA, O=COMODO CA Limited, L=Salford, ST=Greater Manchester, C=GB
  Signature Algorithm: SHA1withRSA, OID = 1.2.840.113549.1.1.5

  Key:  Sun RSA public key, 2048 bits
  modulus: 29228040797620088185059997574537119351558582254224553363625999949471158522928153119619356457964567255928627474476980488918237736896593226431595980760769856483204188451845691631117681374800962617641163675563873102387187021601975881664616861198496139877926512369897417368990950371520148262869198585303148849614812441736868591662151520732180525325132820462886533155995822558784794124138972552443423893573895991944469961656211931140451552585365376036245619735847320995241846118037511165462309528630584412241597011248952409192171547926233812095423192042969869194516132968972018882214475723985856177646309824236563849239953
  public exponent: 65537
  Validity: [From: Thu Apr 15 17:00:00 PDT 2010,
               To: Sat May 30 03:48:38 PDT 2020]
  Issuer: CN=AddTrust External CA Root, OU=AddTrust External TTP Network, O=AddTrust AB, C=SE
  SerialNumber: [    1690c329 b6780607 511f05b0 344846cb]

Certificate Extensions: 7
[1]: ObjectId: 1.3.6.1.5.5.7.1.1 Criticality=false
AuthorityInfoAccess [
  [
   accessMethod: caIssuers
   accessLocation: URIName: http://crt.usertrust.com/AddTrustExternalCARoot.p7c
,
   accessMethod: caIssuers
   accessLocation: URIName: http://crt.usertrust.com/AddTrustUTNSGCCA.crt
,
   accessMethod: ocsp
   accessLocation: URIName: http://ocsp.usertrust.com
]
]

[2]: ObjectId: 2.5.29.35 Criticality=false
AuthorityKeyIdentifier [
KeyIdentifier [
0000: AD BD 98 7A 34 B4 26 F7   FA C4 26 54 EF 03 BD E0  ...z4.&...&T....
0010: 24 CB 54 1A                                        $.T.
]
]

[3]: ObjectId: 2.5.29.19 Criticality=true
BasicConstraints:[
  CA:true
  PathLen:0
]

[4]: ObjectId: 2.5.29.31 Criticality=false
CRLDistributionPoints [
  [DistributionPoint:
     [URIName: http://crl.usertrust.com/AddTrustExternalCARoot.crl]
]]

[5]: ObjectId: 2.5.29.32 Criticality=false
CertificatePolicies [
  [CertificatePolicyId: [2.5.29.32.0]
[]  ]
]

[6]: ObjectId: 2.5.29.15 Criticality=true
KeyUsage [
  Key_CertSign
  Crl_Sign
]

[7]: ObjectId: 2.5.29.14 Criticality=false
SubjectKeyIdentifier [
KeyIdentifier [
0000: 3F D5 B5 D0 D6 44 79 50   4A 17 A3 9B 8C 4A DC B8  ?....DyPJ....J..
0010: B0 22 64 6B                                        ."dk
]
]

]
  Algorithm: [SHA1withRSA]
  Signature:
0000: 13 85 1F 52 80 18 C9 53   F7 FE 2E 1A AF CC D9 0B  ...R...S........
0010: 3C C2 D3 85 81 10 F0 28   8D B9 40 7E 2C 9E 8F D6  <......(..@.,...
0020: 36 86 0A 4C 14 2D D6 97   43 92 41 19 37 4B 96 9E  6..L.-..C.A.7K..
0030: EB A9 30 79 12 95 B3 02   36 57 ED 2B B9 1D 98 1A  ..0y....6W.+....
0040: A3 18 0A 3F 9B 39 8B CD   A1 49 29 4C 2F F9 D0 95  ...?.9...I)L/...
0050: 8C C8 4D 95 BA A8 43 CF   33 AA 25 2A 5A 0E AA 27  ..M...C.3.%*Z..'
0060: C9 4E 6B B1 E6 73 1F B3   74 04 C3 F3 4C E2 A8 EB  .Nk..s..t...L...
0070: 67 B7 5D B8 08 05 1A 56   9A 54 29 85 F5 29 4E 80  g.]....V.T)..)N.
0080: 3B 95 D0 7B 53 96 11 56   C1 02 D3 EA B2 7F CA 8F  ;...S..V........
0090: 9C 70 4A 14 8D 5A B9 16   60 75 D6 CD 27 1E 16 CD  .pJ..Z..`u..'...
00A0: 5B 33 8E 79 40 CF 28 48   E7 DC 71 16 4E 74 91 75  [3.y@.(H..q.Nt.u
00B0: B9 2A 8C F1 70 AC 26 DD   04 B9 40 C2 85 DE 1C 93  .*..p.&...@.....
00C0: 40 D0 CC 6E C3 9B AA EF   60 65 DF 60 22 F0 5A A5  @..n....`e.`".Z.
00D0: 7A A2 2F E4 70 73 EE 3C   D4 26 2B 68 07 C1 20 7A  z./.ps.<.&+h.. z
00E0: E8 98 5A 3E 7B 9F 02 8B   62 C0 85 81 80 60 35 7E  ..Z>....b....`5.
00F0: A5 1D 0C D2 9C DF 62 45   0D DB FC 37 FB F5 25 22  ......bE...7..%"

]
chain [2] = [
[
  Version: V3
  Subject: CN=AddTrust External CA Root, OU=AddTrust External TTP Network, O=AddTrust AB, C=SE
  Signature Algorithm: SHA1withRSA, OID = 1.2.840.113549.1.1.5

  Key:  Sun RSA public key, 2048 bits
  modulus: 23223460521213001555387570833114089730860753895612098652836669980305042236333373520864248457295413309113206184129614795458813002793321404739348347239478157361314575018921060208560207337879261682185633570259454980009323505955755478574737771466443477069914070664457159874562246026231674202013525055051064032749275350905982802892471956172353456348747163465303302884619908731908096753154575131719129358212869729511062189039464751904900614685539733488960803754548627928530841064764065036079799777523666592044408376641702595881456975606363374738747468052431570879657918206353629078434589859560212766197636528957975011023399
  public exponent: 65537
  Validity: [From: Tue May 30 03:48:38 PDT 2000,
               To: Sat May 30 03:48:38 PDT 2020]
  Issuer: CN=AddTrust External CA Root, OU=AddTrust External TTP Network, O=AddTrust AB, C=SE
  SerialNumber: [    01]

Certificate Extensions: 4
[1]: ObjectId: 2.5.29.35 Criticality=false
AuthorityKeyIdentifier [
KeyIdentifier [
0000: AD BD 98 7A 34 B4 26 F7   FA C4 26 54 EF 03 BD E0  ...z4.&...&T....
0010: 24 CB 54 1A                                        $.T.
]
[CN=AddTrust External CA Root, OU=AddTrust External TTP Network, O=AddTrust AB, C=SE]
SerialNumber: [    01]
]

[2]: ObjectId: 2.5.29.19 Criticality=true
BasicConstraints:[
  CA:true
  PathLen:2147483647
]

[3]: ObjectId: 2.5.29.15 Criticality=false
KeyUsage [
  Key_CertSign
  Crl_Sign
]

[4]: ObjectId: 2.5.29.14 Criticality=false
SubjectKeyIdentifier [
KeyIdentifier [
0000: AD BD 98 7A 34 B4 26 F7   FA C4 26 54 EF 03 BD E0  ...z4.&...&T....
0010: 24 CB 54 1A                                        $.T.
]
]

]
  Algorithm: [SHA1withRSA]
  Signature:
0000: B0 9B E0 85 25 C2 D6 23   E2 0F 96 06 92 9D 41 98  ....%..#......A.
0010: 9C D9 84 79 81 D9 1E 5B   14 07 23 36 65 8F B0 D8  ...y...[..#6e...
0020: 77 BB AC 41 6C 47 60 83   51 B0 F9 32 3D E7 FC F6  w..AlG`.Q..2=...
0030: 26 13 C7 80 16 A5 BF 5A   FC 87 CF 78 79 89 21 9A  &......Z...xy.!.
0040: E2 4C 07 0A 86 35 BC F2   DE 51 C4 D2 96 B7 DC 7E  .L...5...Q......
0050: 4E EE 70 FD 1C 39 EB 0C   02 51 14 2D 8E BD 16 E0  N.p..9...Q.-....
0060: C1 DF 46 75 E7 24 AD EC   F4 42 B4 85 93 70 10 67  ..Fu.$...B...p.g
0070: BA 9D 06 35 4A 18 D3 2B   7A CC 51 42 A1 7A 63 D1  ...5J..+z.QB.zc.
0080: E6 BB A1 C5 2B C2 36 BE   13 0D E6 BD 63 7E 79 7B  ....+.6.....c.y.
0090: A7 09 0D 40 AB 6A DD 8F   8A C3 F6 F6 8C 1A 42 05  ...@.j........B.
00A0: 51 D4 45 F5 9F A7 62 21   68 15 20 43 3C 99 E7 7C  Q.E...b!h. C<...
00B0: BD 24 D8 A9 91 17 73 88   3F 56 1B 31 38 18 B4 71  .$....s.?V.18..q
00C0: 0F 9A CD C8 0E 9E 8E 2E   1B E1 8C 98 83 CB 1F 31  ...............1
00D0: F1 44 4C C6 04 73 49 76   60 0F C7 F8 BD 17 80 6B  .DL..sIv`......k
00E0: 2E E9 CC 4C 0E 5A 9A 79   0F 20 0A 2E D5 9E 63 26  ...L.Z.y. ....c&
00F0: 1E 55 92 94 D8 82 17 5A   7B D0 BC C7 8F 4E 86 04  .U.....Z.....N..

]
***
Found trusted certificate:
[
[
  Version: V3
  Subject: CN=AddTrust External CA Root, OU=AddTrust External TTP Network, O=AddTrust AB, C=SE
  Signature Algorithm: SHA1withRSA, OID = 1.2.840.113549.1.1.5

  Key:  Sun RSA public key, 2048 bits
  modulus: 23223460521213001555387570833114089730860753895612098652836669980305042236333373520864248457295413309113206184129614795458813002793321404739348347239478157361314575018921060208560207337879261682185633570259454980009323505955755478574737771466443477069914070664457159874562246026231674202013525055051064032749275350905982802892471956172353456348747163465303302884619908731908096753154575131719129358212869729511062189039464751904900614685539733488960803754548627928530841064764065036079799777523666592044408376641702595881456975606363374738747468052431570879657918206353629078434589859560212766197636528957975011023399
  public exponent: 65537
  Validity: [From: Tue May 30 03:48:38 PDT 2000,
               To: Sat May 30 03:48:38 PDT 2020]
  Issuer: CN=AddTrust External CA Root, OU=AddTrust External TTP Network, O=AddTrust AB, C=SE
  SerialNumber: [    01]

Certificate Extensions: 4
[1]: ObjectId: 2.5.29.35 Criticality=false
AuthorityKeyIdentifier [
KeyIdentifier [
0000: AD BD 98 7A 34 B4 26 F7   FA C4 26 54 EF 03 BD E0  ...z4.&...&T....
0010: 24 CB 54 1A                                        $.T.
]
[CN=AddTrust External CA Root, OU=AddTrust External TTP Network, O=AddTrust AB, C=SE]
SerialNumber: [    01]
]

[2]: ObjectId: 2.5.29.19 Criticality=true
BasicConstraints:[
  CA:true
  PathLen:2147483647
]

[3]: ObjectId: 2.5.29.15 Criticality=false
KeyUsage [
  Key_CertSign
  Crl_Sign
]

[4]: ObjectId: 2.5.29.14 Criticality=false
SubjectKeyIdentifier [
KeyIdentifier [
0000: AD BD 98 7A 34 B4 26 F7   FA C4 26 54 EF 03 BD E0  ...z4.&...&T....
0010: 24 CB 54 1A                                        $.T.
]
]

]
  Algorithm: [SHA1withRSA]
  Signature:
0000: B0 9B E0 85 25 C2 D6 23   E2 0F 96 06 92 9D 41 98  ....%..#......A.
0010: 9C D9 84 79 81 D9 1E 5B   14 07 23 36 65 8F B0 D8  ...y...[..#6e...
0020: 77 BB AC 41 6C 47 60 83   51 B0 F9 32 3D E7 FC F6  w..AlG`.Q..2=...
0030: 26 13 C7 80 16 A5 BF 5A   FC 87 CF 78 79 89 21 9A  &......Z...xy.!.
0040: E2 4C 07 0A 86 35 BC F2   DE 51 C4 D2 96 B7 DC 7E  .L...5...Q......
0050: 4E EE 70 FD 1C 39 EB 0C   02 51 14 2D 8E BD 16 E0  N.p..9...Q.-....
0060: C1 DF 46 75 E7 24 AD EC   F4 42 B4 85 93 70 10 67  ..Fu.$...B...p.g
0070: BA 9D 06 35 4A 18 D3 2B   7A CC 51 42 A1 7A 63 D1  ...5J..+z.QB.zc.
0080: E6 BB A1 C5 2B C2 36 BE   13 0D E6 BD 63 7E 79 7B  ....+.6.....c.y.
0090: A7 09 0D 40 AB 6A DD 8F   8A C3 F6 F6 8C 1A 42 05  ...@.j........B.
00A0: 51 D4 45 F5 9F A7 62 21   68 15 20 43 3C 99 E7 7C  Q.E...b!h. C<...
00B0: BD 24 D8 A9 91 17 73 88   3F 56 1B 31 38 18 B4 71  .$....s.?V.18..q
00C0: 0F 9A CD C8 0E 9E 8E 2E   1B E1 8C 98 83 CB 1F 31  ...............1
00D0: F1 44 4C C6 04 73 49 76   60 0F C7 F8 BD 17 80 6B  .DL..sIv`......k
00E0: 2E E9 CC 4C 0E 5A 9A 79   0F 20 0A 2E D5 9E 63 26  ...L.Z.y. ....c&
00F0: 1E 55 92 94 D8 82 17 5A   7B D0 BC C7 8F 4E 86 04  .U.....Z.....N..

]
main, READ: TLSv1 Handshake, length = 4
*** ServerHelloDone
*** ClientKeyExchange, RSA PreMasterSecret, TLSv1
main, WRITE: TLSv1 Handshake, length = 262
SESSION KEYGEN:
PreMaster Secret:
0000: 03 01 D6 65 86 EA 71 82   EC 56 E5 CD B0 A8 07 AD  ...e..q..V......
0010: 8E 28 59 44 DD CC B4 ED   E2 60 20 BB 59 C5 F5 10  .(YD.....` .Y...
0020: 5D A6 0C 0A DF 65 26 50   FF 81 FF FB F3 A3 3A 8A  ]....e&P......:.
CONNECTION KEYGEN:
Client Nonce:
0000: 56 A9 B6 84 31 61 CD 94   7E 10 FA 18 BE B1 F5 5E  V...1a.........^
0010: BA 2D 10 52 01 BC 14 89   B9 6B CC 1B 43 44 D9 C4  .-.R.....k..CD..
Server Nonce:
0000: 0A 99 C4 B4 CC EA 7B A1   AC 04 95 CC 4F 30 FC E0  ............O0..
0010: 24 C0 04 52 B6 90 67 7B   AC AD CD 46 DB 1D F6 32  $..R..g....F...2
Master Secret:
0000: 41 9F 76 E7 72 58 8A 6B   87 9E 47 F6 CD AE D2 B0  A.v.rX.k..G.....
0010: 73 E4 AB C4 D9 6F 36 06   35 BE B1 D3 66 74 4D FE  s....o6.5...ftM.
0020: 77 95 B1 FF B9 41 4E F2   17 7C 64 7E B4 D3 33 B6  w....AN...d...3.
Client MAC write Secret:
0000: 73 6F 04 E4 95 A6 11 9D   35 7B 10 89 88 5A 63 1A  so......5....Zc.
Server MAC write Secret:
0000: 4F EF 97 98 34 63 5F 13   95 DB 04 A4 06 28 44 8D  O...4c_......(D.
Client write key:
0000: 06 65 46 D5 EE 3F 82 90   08 F1 A3 B8 38 05 D2 8C  .eF..?......8...
Server write key:
0000: E7 0A 35 19 4E F0 C0 C7   E4 AB A3 45 5B 24 6B A7  ..5.N......E[$k.
... no IV used for this cipher
main, WRITE: TLSv1 Change Cipher Spec, length = 1
*** Finished
verify_data:  { 60, 40, 223, 51, 170, 135, 124, 222, 136, 251, 96, 151 }
***
main, WRITE: TLSv1 Handshake, length = 32
main, READ: TLSv1 Change Cipher Spec, length = 1
main, READ: TLSv1 Handshake, length = 32
*** Finished
verify_data:  { 234, 170, 156, 231, 101, 64, 238, 115, 66, 216, 147, 107 }
***
%% Cached client session: [Session-1, SSL_RSA_WITH_RC4_128_MD5]
main, WRITE: TLSv1 Application Data, length = 186
main, READ: TLSv1 Application Data, length = 186
main, called close()
main, called closeInternal(true)
main, SEND TLSv1 ALERT:  warning, description = close_notify
main, WRITE: TLSv1 Alert, length = 18
main, called closeSocket(selfInitiated)
Ignoring unavailable cipher suite: TLS_ECDHE_RSA_WITH_AES_256_CBC_SHA
Ignoring unavailable cipher suite: TLS_DHE_RSA_WITH_AES_256_CBC_SHA
Ignoring unavailable cipher suite: TLS_ECDH_RSA_WITH_AES_256_CBC_SHA
Ignoring unsupported cipher suite: TLS_DHE_DSS_WITH_AES_128_CBC_SHA256
Ignoring unsupported cipher suite: TLS_DHE_DSS_WITH_AES_256_CBC_SHA256
Ignoring unsupported cipher suite: TLS_DHE_RSA_WITH_AES_128_CBC_SHA256
Ignoring unsupported cipher suite: TLS_ECDH_RSA_WITH_AES_128_CBC_SHA256
Ignoring unsupported cipher suite: TLS_DHE_RSA_WITH_AES_256_CBC_SHA256
Ignoring unsupported cipher suite: TLS_ECDHE_RSA_WITH_AES_256_CBC_SHA384
Ignoring unsupported cipher suite: TLS_ECDH_ECDSA_WITH_AES_256_CBC_SHA384
Ignoring unsupported cipher suite: TLS_RSA_WITH_AES_256_CBC_SHA256
Ignoring unavailable cipher suite: TLS_ECDHE_ECDSA_WITH_AES_256_CBC_SHA
Ignoring unsupported cipher suite: TLS_ECDHE_RSA_WITH_AES_128_CBC_SHA256
Ignoring unsupported cipher suite: TLS_ECDHE_ECDSA_WITH_AES_256_CBC_SHA384
Ignoring unavailable cipher suite: TLS_DHE_DSS_WITH_AES_256_CBC_SHA
Ignoring unsupported cipher suite: TLS_ECDH_RSA_WITH_AES_256_CBC_SHA384
Ignoring unsupported cipher suite: TLS_ECDHE_ECDSA_WITH_AES_128_CBC_SHA256
Ignoring unsupported cipher suite: TLS_ECDH_ECDSA_WITH_AES_128_CBC_SHA256
Ignoring unavailable cipher suite: TLS_ECDH_ECDSA_WITH_AES_256_CBC_SHA
Ignoring unavailable cipher suite: TLS_RSA_WITH_AES_256_CBC_SHA
Ignoring unsupported cipher suite: TLS_RSA_WITH_AES_128_CBC_SHA256
Allow unsafe renegotiation: false
Allow legacy hello messages: true
Is initial handshake: true
Is secure renegotiation: false
main, setSoTimeout(0) called
%% Client cached [Session-1, SSL_RSA_WITH_RC4_128_MD5]
%% Try resuming [Session-1, SSL_RSA_WITH_RC4_128_MD5] from port 65200
*** ClientHello, TLSv1
RandomCookie:  GMT: 1437119876 bytes = { 129, 184, 17, 88, 143, 103, 31, 19, 249, 216, 123, 29, 17, 42, 230, 181, 118, 38, 131, 118, 159, 195, 180, 58, 106, 24, 210, 126 }
Session ID:  {136, 89, 83, 11, 23, 101, 192, 91, 87, 2, 134, 152, 212, 196, 106, 199, 5, 205, 152, 109, 128, 199, 74, 198, 231, 196, 33, 114, 8, 182, 136, 37}
Cipher Suites: [TLS_ECDHE_ECDSA_WITH_AES_128_CBC_SHA, TLS_ECDHE_RSA_WITH_AES_128_CBC_SHA, TLS_RSA_WITH_AES_128_CBC_SHA, TLS_ECDH_ECDSA_WITH_AES_128_CBC_SHA, TLS_ECDH_RSA_WITH_AES_128_CBC_SHA, TLS_DHE_RSA_WITH_AES_128_CBC_SHA, TLS_DHE_DSS_WITH_AES_128_CBC_SHA, TLS_ECDHE_ECDSA_WITH_3DES_EDE_CBC_SHA, TLS_ECDHE_RSA_WITH_3DES_EDE_CBC_SHA, SSL_RSA_WITH_3DES_EDE_CBC_SHA, TLS_ECDH_ECDSA_WITH_3DES_EDE_CBC_SHA, TLS_ECDH_RSA_WITH_3DES_EDE_CBC_SHA, SSL_DHE_RSA_WITH_3DES_EDE_CBC_SHA, SSL_DHE_DSS_WITH_3DES_EDE_CBC_SHA, TLS_ECDHE_ECDSA_WITH_RC4_128_SHA, TLS_ECDHE_RSA_WITH_RC4_128_SHA, SSL_RSA_WITH_RC4_128_SHA, TLS_ECDH_ECDSA_WITH_RC4_128_SHA, TLS_ECDH_RSA_WITH_RC4_128_SHA, SSL_RSA_WITH_RC4_128_MD5, TLS_EMPTY_RENEGOTIATION_INFO_SCSV]
Compression Methods:  { 0 }
Extension elliptic_curves, curve names: {secp256r1, sect163k1, sect163r2, secp192r1, secp224r1, sect233k1, sect233r1, sect283k1, sect283r1, secp384r1, sect409k1, sect409r1, secp521r1, sect571k1, sect571r1, secp160k1, secp160r1, secp160r2, sect163r1, secp192k1, sect193r1, sect193r2, secp224k1, sect239k1, secp256k1}
Extension ec_point_formats, formats: [uncompressed]
Extension server_name, server_name: [host_name: apps-stable.ingenuity.com]
***
main, WRITE: TLSv1 Handshake, length = 215
main, READ: TLSv1 Handshake, length = 74
*** ServerHello, TLSv1
RandomCookie:  GMT: 356395786 bytes = { 189, 142, 71, 110, 13, 131, 186, 61, 218, 94, 139, 170, 131, 252, 1, 18, 139, 246, 254, 135, 23, 183, 40, 218, 233, 5, 207, 22 }
Session ID:  {136, 89, 83, 11, 23, 101, 192, 91, 87, 2, 134, 152, 212, 196, 106, 199, 5, 205, 152, 109, 128, 199, 74, 198, 231, 196, 33, 114, 8, 182, 136, 37}
Cipher Suite: SSL_RSA_WITH_RC4_128_MD5
Compression Method: 0
***
Warning: No renegotiation indication extension in ServerHello
CONNECTION KEYGEN:
Client Nonce:
0000: 56 A9 B6 84 81 B8 11 58   8F 67 1F 13 F9 D8 7B 1D  V......X.g......
0010: 11 2A E6 B5 76 26 83 76   9F C3 B4 3A 6A 18 D2 7E  .*..v&.v...:j...
Server Nonce:
0000: 15 3E 2B 0A BD 8E 47 6E   0D 83 BA 3D DA 5E 8B AA  .>+...Gn...=.^..
0010: 83 FC 01 12 8B F6 FE 87   17 B7 28 DA E9 05 CF 16  ..........(.....
Master Secret:
0000: 41 9F 76 E7 72 58 8A 6B   87 9E 47 F6 CD AE D2 B0  A.v.rX.k..G.....
0010: 73 E4 AB C4 D9 6F 36 06   35 BE B1 D3 66 74 4D FE  s....o6.5...ftM.
0020: 77 95 B1 FF B9 41 4E F2   17 7C 64 7E B4 D3 33 B6  w....AN...d...3.
Client MAC write Secret:
0000: 38 F4 04 EF 3B 96 9B 94   D5 50 E4 0B 19 67 5E 92  8...;....P...g^.
Server MAC write Secret:
0000: B5 60 DD DC 45 2A 2F 44   8A C6 ED E3 5A 95 CA 40  .`..E*/D....Z..@
Client write key:
0000: AC 25 BB 5C 91 24 B8 48   17 7B DD 27 AA 6D 4D 9A  .%.\.$.H...'.mM.
Server write key:
0000: 06 3D 85 5A 76 42 72 78   4E 82 6A 98 36 3E 18 AA  .=.ZvBrxN.j.6>..
... no IV used for this cipher
%% Server resumed [Session-1, SSL_RSA_WITH_RC4_128_MD5]
main, READ: TLSv1 Change Cipher Spec, length = 1
main, READ: TLSv1 Handshake, length = 32
*** Finished
verify_data:  { 52, 77, 97, 11, 238, 250, 190, 178, 119, 73, 176, 232 }
***
main, WRITE: TLSv1 Change Cipher Spec, length = 1
*** Finished
verify_data:  { 248, 38, 7, 220, 106, 10, 144, 106, 96, 10, 105, 194 }
***
main, WRITE: TLSv1 Handshake, length = 32
main, WRITE: TLSv1 Application Data, length = 187
main, READ: TLSv1 Application Data, length = 429
main, called close()
main, called closeInternal(true)
main, SEND TLSv1 ALERT:  warning, description = close_notify
main, WRITE: TLSv1 Alert, length = 18
main, called closeSocket(selfInitiated)
Ignoring unavailable cipher suite: TLS_ECDHE_RSA_WITH_AES_256_CBC_SHA
Ignoring unavailable cipher suite: TLS_DHE_RSA_WITH_AES_256_CBC_SHA
Ignoring unavailable cipher suite: TLS_ECDH_RSA_WITH_AES_256_CBC_SHA
Ignoring unsupported cipher suite: TLS_DHE_DSS_WITH_AES_128_CBC_SHA256
Ignoring unsupported cipher suite: TLS_DHE_DSS_WITH_AES_256_CBC_SHA256
Ignoring unsupported cipher suite: TLS_DHE_RSA_WITH_AES_128_CBC_SHA256
Ignoring unsupported cipher suite: TLS_ECDH_RSA_WITH_AES_128_CBC_SHA256
Ignoring unsupported cipher suite: TLS_DHE_RSA_WITH_AES_256_CBC_SHA256
Ignoring unsupported cipher suite: TLS_ECDHE_RSA_WITH_AES_256_CBC_SHA384
Ignoring unsupported cipher suite: TLS_ECDH_ECDSA_WITH_AES_256_CBC_SHA384
Ignoring unsupported cipher suite: TLS_RSA_WITH_AES_256_CBC_SHA256
Ignoring unavailable cipher suite: TLS_ECDHE_ECDSA_WITH_AES_256_CBC_SHA
Ignoring unsupported cipher suite: TLS_ECDHE_RSA_WITH_AES_128_CBC_SHA256
Ignoring unsupported cipher suite: TLS_ECDHE_ECDSA_WITH_AES_256_CBC_SHA384
Ignoring unavailable cipher suite: TLS_DHE_DSS_WITH_AES_256_CBC_SHA
Ignoring unsupported cipher suite: TLS_ECDH_RSA_WITH_AES_256_CBC_SHA384
Ignoring unsupported cipher suite: TLS_ECDHE_ECDSA_WITH_AES_128_CBC_SHA256
Ignoring unsupported cipher suite: TLS_ECDH_ECDSA_WITH_AES_128_CBC_SHA256
Ignoring unavailable cipher suite: TLS_ECDH_ECDSA_WITH_AES_256_CBC_SHA
Ignoring unavailable cipher suite: TLS_RSA_WITH_AES_256_CBC_SHA
Ignoring unsupported cipher suite: TLS_RSA_WITH_AES_128_CBC_SHA256
Allow unsafe renegotiation: false
Allow legacy hello messages: true
Is initial handshake: true
Is secure renegotiation: false
main, setSoTimeout(0) called
%% Client cached [Session-1, SSL_RSA_WITH_RC4_128_MD5]
%% Try resuming [Session-1, SSL_RSA_WITH_RC4_128_MD5] from port 65201
*** ClientHello, TLSv1
RandomCookie:  GMT: 1437119876 bytes = { 28, 180, 35, 80, 2, 34, 22, 83, 0, 241, 221, 238, 245, 34, 16, 113, 139, 207, 147, 127, 96, 139, 132, 20, 217, 107, 222, 239 }
Session ID:  {136, 89, 83, 11, 23, 101, 192, 91, 87, 2, 134, 152, 212, 196, 106, 199, 5, 205, 152, 109, 128, 199, 74, 198, 231, 196, 33, 114, 8, 182, 136, 37}
Cipher Suites: [TLS_ECDHE_ECDSA_WITH_AES_128_CBC_SHA, TLS_ECDHE_RSA_WITH_AES_128_CBC_SHA, TLS_RSA_WITH_AES_128_CBC_SHA, TLS_ECDH_ECDSA_WITH_AES_128_CBC_SHA, TLS_ECDH_RSA_WITH_AES_128_CBC_SHA, TLS_DHE_RSA_WITH_AES_128_CBC_SHA, TLS_DHE_DSS_WITH_AES_128_CBC_SHA, TLS_ECDHE_ECDSA_WITH_3DES_EDE_CBC_SHA, TLS_ECDHE_RSA_WITH_3DES_EDE_CBC_SHA, SSL_RSA_WITH_3DES_EDE_CBC_SHA, TLS_ECDH_ECDSA_WITH_3DES_EDE_CBC_SHA, TLS_ECDH_RSA_WITH_3DES_EDE_CBC_SHA, SSL_DHE_RSA_WITH_3DES_EDE_CBC_SHA, SSL_DHE_DSS_WITH_3DES_EDE_CBC_SHA, TLS_ECDHE_ECDSA_WITH_RC4_128_SHA, TLS_ECDHE_RSA_WITH_RC4_128_SHA, SSL_RSA_WITH_RC4_128_SHA, TLS_ECDH_ECDSA_WITH_RC4_128_SHA, TLS_ECDH_RSA_WITH_RC4_128_SHA, SSL_RSA_WITH_RC4_128_MD5, TLS_EMPTY_RENEGOTIATION_INFO_SCSV]
Compression Methods:  { 0 }
Extension elliptic_curves, curve names: {secp256r1, sect163k1, sect163r2, secp192r1, secp224r1, sect233k1, sect233r1, sect283k1, sect283r1, secp384r1, sect409k1, sect409r1, secp521r1, sect571k1, sect571r1, secp160k1, secp160r1, secp160r2, sect163r1, secp192k1, sect193r1, sect193r2, secp224k1, sect239k1, secp256k1}
Extension ec_point_formats, formats: [uncompressed]
Extension server_name, server_name: [host_name: apps-stable.ingenuity.com]
***
main, WRITE: TLSv1 Handshake, length = 215
main, READ: TLSv1 Handshake, length = 74
*** ServerHello, TLSv1
RandomCookie:  GMT: -957640859 bytes = { 193, 203, 123, 16, 9, 125, 183, 30, 199, 72, 174, 15, 209, 19, 154, 247, 51, 5, 45, 112, 226, 241, 103, 174, 92, 106, 111, 210 }
Session ID:  {136, 89, 83, 11, 23, 101, 192, 91, 87, 2, 134, 152, 212, 196, 106, 199, 5, 205, 152, 109, 128, 199, 74, 198, 231, 196, 33, 114, 8, 182, 136, 37}
Cipher Suite: SSL_RSA_WITH_RC4_128_MD5
Compression Method: 0
***
Warning: No renegotiation indication extension in ServerHello
CONNECTION KEYGEN:
Client Nonce:
0000: 56 A9 B6 84 1C B4 23 50   02 22 16 53 00 F1 DD EE  V.....#P.".S....
0010: F5 22 10 71 8B CF 93 7F   60 8B 84 14 D9 6B DE EF  .".q....`....k..
Server Nonce:
0000: C7 EC 8F 65 C1 CB 7B 10   09 7D B7 1E C7 48 AE 0F  ...e.........H..
0010: D1 13 9A F7 33 05 2D 70   E2 F1 67 AE 5C 6A 6F D2  ....3.-p..g.\jo.
Master Secret:
0000: 41 9F 76 E7 72 58 8A 6B   87 9E 47 F6 CD AE D2 B0  A.v.rX.k..G.....
0010: 73 E4 AB C4 D9 6F 36 06   35 BE B1 D3 66 74 4D FE  s....o6.5...ftM.
0020: 77 95 B1 FF B9 41 4E F2   17 7C 64 7E B4 D3 33 B6  w....AN...d...3.
Client MAC write Secret:
0000: F5 B9 36 96 46 90 EB BE   B1 22 3D E2 08 1A A9 26  ..6.F...."=....&
Server MAC write Secret:
0000: 40 B2 8D 8E 1E FF 86 F0   B5 91 D6 D8 35 AB A2 DC  @...........5...
Client write key:
0000: 6B 9A D6 F4 B9 07 5E 67   63 86 05 D7 E1 19 8A 76  k.....^gc......v
Server write key:
0000: 9D F5 91 08 04 22 BE 20   2E 56 89 D2 B2 57 13 5A  .....". .V...W.Z
... no IV used for this cipher
%% Server resumed [Session-1, SSL_RSA_WITH_RC4_128_MD5]
main, READ: TLSv1 Change Cipher Spec, length = 1
main, READ: TLSv1 Handshake, length = 32
*** Finished
verify_data:  { 232, 200, 69, 30, 249, 64, 119, 97, 116, 84, 223, 83 }
***
main, WRITE: TLSv1 Change Cipher Spec, length = 1
*** Finished
verify_data:  { 42, 1, 9, 62, 184, 51, 110, 65, 151, 48, 130, 140 }
***
main, WRITE: TLSv1 Handshake, length = 32
main, WRITE: TLSv1 Application Data, length = 192
main, READ: TLSv1 Application Data, length = 2068
main, READ: TLSv1 Application Data, length = 1476
main, READ: TLSv1 Application Data, length = 1476
main, READ: TLSv1 Application Data, length = 1476
main, READ: TLSv1 Application Data, length = 1476
main, READ: TLSv1 Application Data, length = 1285
main, received EOFException: ignored
main, called closeInternal(false)
main, SEND TLSv1 ALERT:  warning, description = close_notify
main, WRITE: TLSv1 Alert, length = 18
main, called closeSocket(selfInitiated)
main, called close()
main, called closeInternal(true)

Process finished with exit code 0
